target datalayout = "e-m:e-p270:32:32-p271:32:32-p272:64:64-i64:64-i128:128-f80:128-n8:16:32:64-S128"
target triple = "x86_64-pc-linux-gnu"

; Function Attrs: nounwind uwtable
define internal void @add_8x8basis_c(ptr noundef %0, ptr noundef %1, i32 noundef %2) #1 {
  %4 = alloca ptr, align 8
  %5 = alloca ptr, align 8
  %6 = alloca i32, align 4
  %7 = alloca i32, align 4
  store ptr %0, ptr %4, align 8, !tbaa !18
  store ptr %1, ptr %5, align 8, !tbaa !18
  store i32 %2, ptr %6, align 4, !tbaa !20
  call void @llvm.lifetime.start.p0(i64 4, ptr %7) #7
  store i32 0, ptr %7, align 4, !tbaa !20
  br label %8

8:                                                ; preds = %30, %3
  %9 = load i32, ptr %7, align 4, !tbaa !20
  %10 = icmp slt i32 %9, 64
  br i1 %10, label %11, label %33

11:                                               ; preds = %8
  %12 = load ptr, ptr %5, align 8, !tbaa !18
  %13 = load i32, ptr %7, align 4, !tbaa !20
  %14 = sext i32 %13 to i64
  %15 = getelementptr inbounds i16, ptr %12, i64 %14
  %16 = load i16, ptr %15, align 2, !tbaa !22
  %17 = sext i16 %16 to i32
  %18 = load i32, ptr %6, align 4, !tbaa !20
  %19 = mul nsw i32 %17, %18
  %20 = add nsw i32 %19, 512
  %21 = ashr i32 %20, 10
  %22 = load ptr, ptr %4, align 8, !tbaa !18
  %23 = load i32, ptr %7, align 4, !tbaa !20
  %24 = sext i32 %23 to i64
  %25 = getelementptr inbounds i16, ptr %22, i64 %24
  %26 = load i16, ptr %25, align 2, !tbaa !22
  %27 = sext i16 %26 to i32
  %28 = add nsw i32 %27, %21
  %29 = trunc i32 %28 to i16
  store i16 %29, ptr %25, align 2, !tbaa !22
  br label %30

30:                                               ; preds = %11
  %31 = load i32, ptr %7, align 4, !tbaa !20
  %32 = add nsw i32 %31, 1
  store i32 %32, ptr %7, align 4, !tbaa !20
  br label %8, !llvm.loop !26

33:                                               ; preds = %8
  call void @llvm.lifetime.end.p0(i64 4, ptr %7) #7
  ret void
}