; Function Attrs: nofree norecurse nosync nounwind memory(argmem: readwrite) uwtable
define internal void @add_8x8basis_c(ptr noundef captures(none) %0, ptr noundef readonly captures(none) %1, i32 noundef %2) #2 {
  br label %4

4:                                                ; preds = %3, %4
  %indvars.iv = phi i64 [ 0, %3 ], [ %indvars.iv.next, %4 ]
  %5 = getelementptr inbounds nuw i16, ptr %1, i64 %indvars.iv
  %6 = load i16, ptr %5, align 2, !tbaa !14
  %7 = sext i16 %6 to i32
  %8 = mul nsw i32 %2, %7
  %9 = add nsw i32 %8, 512
  %10 = lshr i32 %9, 10
  %11 = getelementptr inbounds nuw i16, ptr %0, i64 %indvars.iv
  %12 = load i16, ptr %11, align 2, !tbaa !14
  %13 = trunc i32 %10 to i16
  %14 = add i16 %12, %13
  store i16 %14, ptr %11, align 2, !tbaa !14
  %indvars.iv.next = add nuw nsw i64 %indvars.iv, 1
  %exitcond.not = icmp eq i64 %indvars.iv.next, 64
  br i1 %exitcond.not, label %15, label %4, !llvm.loop !18

15:                                               ; preds = %4
  ret void
}